target datalayout = "e-m:e-p270:32:32-p271:32:32-p272:64:64-i64:64-i128:128-f80:128-n8:16:32:64-S128"
target triple = "x86_64-pc-linux-gnu"

%"class.std::vector" = type { %"struct.std::_Vector_base" }
%"struct.std::_Vector_base" = type { %"struct.std::_Vector_base<opencc::UTF8StringSliceBase<unsigned char>, std::allocator<opencc::UTF8StringSliceBase<unsigned char>>>::_Vector_impl" }
%"struct.std::_Vector_base<opencc::UTF8StringSliceBase<unsigned char>, std::allocator<opencc::UTF8StringSliceBase<unsigned char>>>::_Vector_impl" = type { %"struct.std::_Vector_base<opencc::UTF8StringSliceBase<unsigned char>, std::allocator<opencc::UTF8StringSliceBase<unsigned char>>>::_Vector_impl_data" }
%"struct.std::_Vector_base<opencc::UTF8StringSliceBase<unsigned char>, std::allocator<opencc::UTF8StringSliceBase<unsigned char>>>::_Vector_impl_data" = type { ptr, ptr, ptr }
%"class.opencc::UTF8StringSliceBase" = type <{ ptr, i8, i8, [6 x i8] }>
%"struct.opencc::PhraseExtract::Signals" = type { i64, double, double, double }
%"class.opencc::PhraseExtract" = type { ptr, i64, i64, i64, i64, %"class.std::function", %"class.std::function", i8, i8, i8, i8, i8, i8, i8, i8, %"class.opencc::UTF8StringSliceBase.3", i64, double, %"class.std::vector", %"class.std::vector", %"class.std::vector", %"class.std::vector", ptr }
%"class.std::function" = type { %"class.std::_Function_base", ptr }
%"class.std::_Function_base" = type { %"union.std::_Any_data", ptr }
%"union.std::_Any_data" = type { %"union.std::_Nocopy_types" }
%"union.std::_Nocopy_types" = type { { i64, i64 } }
%"class.opencc::UTF8StringSliceBase.3" = type { ptr, i64, i64 }
%"class.__gnu_cxx::__normal_iterator.20" = type { ptr }

; Function Attrs: mustprogress nounwind uwtable
define linkonce_odr noundef nonnull align 8 dereferenceable(8) ptr @_ZNK9__gnu_cxx17__normal_iteratorIPN6opencc19UTF8StringSliceBaseIhEESt6vectorIS3_SaIS3_EEE4baseEv(ptr noundef nonnull align 8 dereferenceable(8) %0) #5 comdat align 2 {
  %2 = alloca ptr, align 8
  store ptr %0, ptr %2, align 8
  %3 = load ptr, ptr %2, align 8
  %4 = getelementptr inbounds %"class.__gnu_cxx::__normal_iterator.20", ptr %3, i32 0, i32 0
  ret ptr %4
}

; Function Attrs: mustprogress nounwind uwtable
define linkonce_odr void @_ZN9__gnu_cxx17__normal_iteratorIPN6opencc19UTF8StringSliceBaseIhEESt6vectorIS3_SaIS3_EEEC2ERKS4_(ptr noundef nonnull align 8 dereferenceable(8) %0, ptr noundef nonnull align 8 dereferenceable(8) %1) unnamed_addr #5 comdat align 2 {
  %3 = alloca ptr, align 8
  %4 = alloca ptr, align 8
  store ptr %0, ptr %3, align 8
  store ptr %1, ptr %4, align 8
  %5 = load ptr, ptr %3, align 8
  %6 = getelementptr inbounds %"class.__gnu_cxx::__normal_iterator.20", ptr %5, i32 0, i32 0
  %7 = load ptr, ptr %4, align 8
  %8 = load ptr, ptr %7, align 8
  store ptr %8, ptr %6, align 8
  ret void
}

; Function Attrs: mustprogress nounwind uwtable
define linkonce_odr noundef nonnull align 8 dereferenceable(8) ptr @_ZN9__gnu_cxx17__normal_iteratorIPN6opencc19UTF8StringSliceBaseIhEESt6vectorIS3_SaIS3_EEEppEv(ptr noundef nonnull align 8 dereferenceable(8) %0) #5 comdat align 2 {
  %2 = alloca ptr, align 8
  store ptr %0, ptr %2, align 8
  %3 = load ptr, ptr %2, align 8
  %4 = getelementptr inbounds %"class.__gnu_cxx::__normal_iterator.20", ptr %3, i32 0, i32 0
  %5 = load ptr, ptr %4, align 8
  %6 = getelementptr inbounds %"class.opencc::UTF8StringSliceBase", ptr %5, i32 1
  store ptr %6, ptr %4, align 8
  ret ptr %3
}

; Function Attrs: mustprogress nounwind uwtable
define linkonce_odr noundef nonnull align 8 dereferenceable(10) ptr @_ZNK9__gnu_cxx17__normal_iteratorIPN6opencc19UTF8StringSliceBaseIhEESt6vectorIS3_SaIS3_EEEdeEv(ptr noundef nonnull align 8 dereferenceable(8) %0) #5 comdat align 2 {
  %2 = alloca ptr, align 8
  store ptr %0, ptr %2, align 8
  %3 = load ptr, ptr %2, align 8
  %4 = getelementptr inbounds %"class.__gnu_cxx::__normal_iterator.20", ptr %3, i32 0, i32 0
  %5 = load ptr, ptr %4, align 8
  ret ptr %5
}

; Function Attrs: mustprogress nounwind uwtable
define linkonce_odr noundef zeroext i1 @_ZN9__gnu_cxxneIPN6opencc19UTF8StringSliceBaseIhEESt6vectorIS3_SaIS3_EEEEbRKNS_17__normal_iteratorIT_T0_EESD_(ptr noundef nonnull align 8 dereferenceable(8) %0, ptr noundef nonnull align 8 dereferenceable(8) %1) #5 comdat {
  %3 = alloca ptr, align 8
  %4 = alloca ptr, align 8
  store ptr %0, ptr %3, align 8
  store ptr %1, ptr %4, align 8
  %5 = load ptr, ptr %3, align 8
  %6 = call noundef nonnull align 8 dereferenceable(8) ptr @_ZNK9__gnu_cxx17__normal_iteratorIPN6opencc19UTF8StringSliceBaseIhEESt6vectorIS3_SaIS3_EEE4baseEv(ptr noundef nonnull align 8 dereferenceable(8) %5) #3
  %7 = load ptr, ptr %6, align 8
  %8 = load ptr, ptr %4, align 8
  %9 = call noundef nonnull align 8 dereferenceable(8) ptr @_ZNK9__gnu_cxx17__normal_iteratorIPN6opencc19UTF8StringSliceBaseIhEESt6vectorIS3_SaIS3_EEE4baseEv(ptr noundef nonnull align 8 dereferenceable(8) %8) #3
  %10 = load ptr, ptr %9, align 8
  %11 = icmp ne ptr %7, %10
  ret i1 %11
}

; Function Attrs: mustprogress nounwind uwtable
define linkonce_odr ptr @_ZNSt6vectorIN6opencc19UTF8StringSliceBaseIhEESaIS2_EE3endEv(ptr noundef nonnull align 8 dereferenceable(24) %0) #5 comdat align 2 {
  %2 = alloca %"class.__gnu_cxx::__normal_iterator.20", align 8
  %3 = alloca ptr, align 8
  store ptr %0, ptr %3, align 8
  %4 = load ptr, ptr %3, align 8
  %5 = getelementptr inbounds %"struct.std::_Vector_base", ptr %4, i32 0, i32 0
  %6 = getelementptr inbounds %"struct.std::_Vector_base<opencc::UTF8StringSliceBase<unsigned char>, std::allocator<opencc::UTF8StringSliceBase<unsigned char>>>::_Vector_impl_data", ptr %5, i32 0, i32 1
  call void @_ZN9__gnu_cxx17__normal_iteratorIPN6opencc19UTF8StringSliceBaseIhEESt6vectorIS3_SaIS3_EEEC2ERKS4_(ptr noundef nonnull align 8 dereferenceable(8) %2, ptr noundef nonnull align 8 dereferenceable(8) %6) #3
  %7 = getelementptr inbounds %"class.__gnu_cxx::__normal_iterator.20", ptr %2, i32 0, i32 0
  %8 = load ptr, ptr %7, align 8
  ret ptr %8
}

; Function Attrs: mustprogress nounwind uwtable
define linkonce_odr ptr @_ZNSt6vectorIN6opencc19UTF8StringSliceBaseIhEESaIS2_EE5beginEv(ptr noundef nonnull align 8 dereferenceable(24) %0) #5 comdat align 2 {
  %2 = alloca %"class.__gnu_cxx::__normal_iterator.20", align 8
  %3 = alloca ptr, align 8
  store ptr %0, ptr %3, align 8
  %4 = load ptr, ptr %3, align 8
  %5 = getelementptr inbounds %"struct.std::_Vector_base", ptr %4, i32 0, i32 0
  %6 = getelementptr inbounds %"struct.std::_Vector_base<opencc::UTF8StringSliceBase<unsigned char>, std::allocator<opencc::UTF8StringSliceBase<unsigned char>>>::_Vector_impl_data", ptr %5, i32 0, i32 0
  call void @_ZN9__gnu_cxx17__normal_iteratorIPN6opencc19UTF8StringSliceBaseIhEESt6vectorIS3_SaIS3_EEEC2ERKS4_(ptr noundef nonnull align 8 dereferenceable(8) %2, ptr noundef nonnull align 8 dereferenceable(8) %6) #3
  %7 = getelementptr inbounds %"class.__gnu_cxx::__normal_iterator.20", ptr %2, i32 0, i32 0
  %8 = load ptr, ptr %7, align 8
  ret ptr %8
}

; Function Attrs: mustprogress uwtable
define void @_ZN6opencc13PhraseExtract18CalculateCohesionsEv(ptr noundef nonnull align 8 dereferenceable(256) %0) #4 align 2 {
  %2 = alloca ptr, align 8
  %3 = alloca ptr, align 8
  %4 = alloca %"class.__gnu_cxx::__normal_iterator.20", align 8
  %5 = alloca %"class.__gnu_cxx::__normal_iterator.20", align 8
  %6 = alloca ptr, align 8
  store ptr %0, ptr %2, align 8
  %7 = load ptr, ptr %2, align 8
  %8 = getelementptr inbounds %"class.opencc::PhraseExtract", ptr %7, i32 0, i32 10
  %9 = load i8, ptr %8, align 1
  %10 = trunc i8 %9 to i1
  br i1 %10, label %12, label %11

11:                                               ; preds = %1
  call void @_ZN6opencc13PhraseExtract21ExtractWordCandidatesEv(ptr noundef nonnull align 8 dereferenceable(256) %7)
  br label %12

12:                                               ; preds = %11, %1
  %13 = getelementptr inbounds %"class.opencc::PhraseExtract", ptr %7, i32 0, i32 9
  %14 = load i8, ptr %13, align 2
  %15 = trunc i8 %14 to i1
  br i1 %15, label %17, label %16

16:                                               ; preds = %12
  call void @_ZN6opencc13PhraseExtract18CalculateFrequencyEv(ptr noundef nonnull align 8 dereferenceable(256) %7)
  br label %17

17:                                               ; preds = %16, %12
  %18 = getelementptr inbounds %"class.opencc::PhraseExtract", ptr %7, i32 0, i32 20
  store ptr %18, ptr %3, align 8
  %19 = load ptr, ptr %3, align 8
  %20 = call ptr @_ZNSt6vectorIN6opencc19UTF8StringSliceBaseIhEESaIS2_EE5beginEv(ptr noundef nonnull align 8 dereferenceable(24) %19) #3
  %21 = getelementptr inbounds %"class.__gnu_cxx::__normal_iterator.20", ptr %4, i32 0, i32 0
  store ptr %20, ptr %21, align 8
  %22 = load ptr, ptr %3, align 8
  %23 = call ptr @_ZNSt6vectorIN6opencc19UTF8StringSliceBaseIhEESaIS2_EE3endEv(ptr noundef nonnull align 8 dereferenceable(24) %22) #3
  %24 = getelementptr inbounds %"class.__gnu_cxx::__normal_iterator.20", ptr %5, i32 0, i32 0
  store ptr %23, ptr %24, align 8
  br label %25

25:                                               ; preds = %36, %17
  %26 = call noundef zeroext i1 @_ZN9__gnu_cxxneIPN6opencc19UTF8StringSliceBaseIhEESt6vectorIS3_SaIS3_EEEEbRKNS_17__normal_iteratorIT_T0_EESD_(ptr noundef nonnull align 8 dereferenceable(8) %4, ptr noundef nonnull align 8 dereferenceable(8) %5) #3
  br i1 %26, label %27, label %38

27:                                               ; preds = %25
  %28 = call noundef nonnull align 8 dereferenceable(10) ptr @_ZNK9__gnu_cxx17__normal_iteratorIPN6opencc19UTF8StringSliceBaseIhEESt6vectorIS3_SaIS3_EEEdeEv(ptr noundef nonnull align 8 dereferenceable(8) %4) #3
  store ptr %28, ptr %6, align 8
  %29 = load ptr, ptr %6, align 8
  %30 = call noundef double @_ZNK6opencc13PhraseExtract17CalculateCohesionERKNS_19UTF8StringSliceBaseIhEE(ptr noundef nonnull align 8 dereferenceable(256) %7, ptr noundef nonnull align 8 dereferenceable(10) %29)
  %31 = getelementptr inbounds %"class.opencc::PhraseExtract", ptr %7, i32 0, i32 22
  %32 = load ptr, ptr %31, align 8
  %33 = load ptr, ptr %6, align 8
  %34 = call noundef nonnull align 8 dereferenceable(32) ptr @_ZN6opencc13PhraseExtract8DictType3GetERKNS_19UTF8StringSliceBaseIhEE(ptr noundef nonnull align 8 dereferenceable(112) %32, ptr noundef nonnull align 8 dereferenceable(10) %33)
  %35 = getelementptr inbounds %"struct.opencc::PhraseExtract::Signals", ptr %34, i32 0, i32 1
  store double %30, ptr %35, align 8
  br label %36

36:                                               ; preds = %27
  %37 = call noundef nonnull align 8 dereferenceable(8) ptr @_ZN9__gnu_cxx17__normal_iteratorIPN6opencc19UTF8StringSliceBaseIhEESt6vectorIS3_SaIS3_EEEppEv(ptr noundef nonnull align 8 dereferenceable(8) %4) #3
  br label %25

38:                                               ; preds = %25
  %39 = getelementptr inbounds %"class.opencc::PhraseExtract", ptr %7, i32 0, i32 11
  store i8 1, ptr %39, align 4
  ret void
}