; Function Attrs: mustprogress uwtable
define void @_ZN6opencc13PhraseExtract18CalculateCohesionsEv(ptr noundef nonnull align 8 dereferenceable(256) %0) local_unnamed_addr #3 align 2 {
  %2 = getelementptr inbounds i8, ptr %0, i64 107
  %3 = load i8, ptr %2, align 1
  %4 = trunc i8 %3 to i1
  br i1 %4, label %6, label %5

5:                                                ; preds = %1
  tail call void @_ZN6opencc13PhraseExtract21ExtractWordCandidatesEv(ptr noundef nonnull align 8 dereferenceable(256) %0)
  br label %6

6:                                                ; preds = %5, %1
  %7 = getelementptr inbounds i8, ptr %0, i64 106
  %8 = load i8, ptr %7, align 2
  %9 = trunc i8 %8 to i1
  br i1 %9, label %11, label %10

10:                                               ; preds = %6
  tail call void @_ZN6opencc13PhraseExtract18CalculateFrequencyEv(ptr noundef nonnull align 8 dereferenceable(256) %0)
  br label %11

11:                                               ; preds = %10, %6
  %12 = getelementptr inbounds i8, ptr %0, i64 200
  %13 = load ptr, ptr %12, align 8
  %14 = getelementptr inbounds i8, ptr %0, i64 208
  %15 = load ptr, ptr %14, align 8
  %.not8 = icmp eq ptr %13, %15
  br i1 %.not8, label %._crit_edge, label %.lr.ph

.lr.ph:                                           ; preds = %11
  %16 = getelementptr inbounds i8, ptr %0, i64 248
  br label %17

17:                                               ; preds = %.lr.ph, %17
  %.sroa.05.09 = phi ptr [ %13, %.lr.ph ], [ %22, %17 ]
  %18 = tail call noundef double @_ZNK6opencc13PhraseExtract17CalculateCohesionERKNS_19UTF8StringSliceBaseIhEE(ptr noundef nonnull align 8 dereferenceable(256) %0, ptr noundef nonnull align 8 dereferenceable(10) %.sroa.05.09)
  %19 = load ptr, ptr %16, align 8
  %20 = tail call noundef nonnull align 8 dereferenceable(32) ptr @_ZN6opencc13PhraseExtract8DictType3GetERKNS_19UTF8StringSliceBaseIhEE(ptr noundef nonnull align 8 dereferenceable(112) %19, ptr noundef nonnull align 8 dereferenceable(10) %.sroa.05.09)
  %21 = getelementptr inbounds i8, ptr %20, i64 8
  store double %18, ptr %21, align 8
  %22 = getelementptr inbounds i8, ptr %.sroa.05.09, i64 16
  %.not = icmp eq ptr %22, %15
  br i1 %.not, label %._crit_edge, label %17

._crit_edge:                                      ; preds = %17, %11
  %23 = getelementptr inbounds i8, ptr %0, i64 108
  store i8 1, ptr %23, align 4
  ret void
}